; Function Attrs: nounwind uwtable
define hidden void @_mi_segment_page_free(ptr noundef %0, i1 noundef zeroext %1, ptr noundef %2) local_unnamed_addr #4 {
  %4 = ptrtoint ptr %0 to i64
  %5 = add i64 %4, -1
  %6 = and i64 %5, -33554432
  %7 = inttoptr i64 %6 to ptr
  %8 = tail call fastcc ptr @mi_segment_page_clear(ptr noundef %0, ptr noundef %2) #10
  %9 = getelementptr inbounds nuw i8, ptr %7, i64 216
  %10 = load i64, ptr %9, align 8, !tbaa !37
  %11 = icmp eq i64 %10, 0
  br i1 %11, label %12, label %13

12:                                               ; preds = %3
  tail call fastcc void @mi_segment_free(ptr noundef nonnull %7, ptr noundef %2) #10
  br label %19

13:                                               ; preds = %3
  %14 = getelementptr inbounds nuw i8, ptr %7, i64 200
  %15 = load i64, ptr %14, align 8, !tbaa !38
  %16 = icmp eq i64 %10, %15
  br i1 %16, label %17, label %18

17:                                               ; preds = %13
  tail call fastcc void @mi_segment_abandon(ptr noundef nonnull %7, ptr noundef %2) #10
  br label %19

18:                                               ; preds = %13
  tail call fastcc void @mi_segment_try_purge(ptr noundef nonnull %7, i1 noundef zeroext false) #10
  br label %19

19:                                               ; preds = %17, %18, %12
  ret void
}